; ModuleID = 'probe1.63d9f70e-cgu.0'
source_filename = "probe1.63d9f70e-cgu.0"
target datalayout = "e-m:e-p:32:32-p270:32:32-p271:32:32-p272:64:64-f64:32:64-f80:32-n8:16:32-S128"
target triple = "i686-unknown-linux-android"

%"core::iter::adapters::rev::Rev<core::iter::adapters::step_by::StepBy<core::ops::range::Range<i32>>>" = type { %"core::iter::adapters::step_by::StepBy<core::ops::range::Range<i32>>" }
%"core::iter::adapters::step_by::StepBy<core::ops::range::Range<i32>>" = type { { i32, i32 }, i32, i8, [3 x i8] }
%"core::panic::location::Location" = type { { [0 x i8]*, i32 }, i32, i32 }
%"unwind::libunwind::_Unwind_Exception" = type { i64, void (i32, %"unwind::libunwind::_Unwind_Exception"*)*, [5 x i32] }
%"unwind::libunwind::_Unwind_Context" = type { [0 x i8] }

@alloc20 = private unnamed_addr constant <{ [27 x i8] }> <{ [27 x i8] c"assertion failed: step != 0" }>, align 1
@alloc21 = private unnamed_addr constant <{ [89 x i8] }> <{ [89 x i8] c"/rustc/e092d0b6b43f2de967af0887873151bb1c0b18d3/library/core/src/iter/adapters/step_by.rs" }>, align 1
@alloc22 = private unnamed_addr constant <{ i8*, [12 x i8] }> <{ i8* getelementptr inbounds (<{ [89 x i8] }>, <{ [89 x i8] }>* @alloc21, i32 0, i32 0, i32 0), [12 x i8] c"Y\00\00\00\15\00\00\00\09\00\00\00" }>, align 4

; core::iter::traits::iterator::Iterator::rev
; Function Attrs: inlinehint nonlazybind uwtable
define void @_ZN4core4iter6traits8iterator8Iterator3rev17h1c69f583c2641a23E(%"core::iter::adapters::rev::Rev<core::iter::adapters::step_by::StepBy<core::ops::range::Range<i32>>>"* sret(%"core::iter::adapters::rev::Rev<core::iter::adapters::step_by::StepBy<core::ops::range::Range<i32>>>") %0, %"core::iter::adapters::step_by::StepBy<core::ops::range::Range<i32>>"* %self) unnamed_addr #0 {
start:
  %_2 = alloca %"core::iter::adapters::step_by::StepBy<core::ops::range::Range<i32>>", align 4
  %1 = bitcast %"core::iter::adapters::step_by::StepBy<core::ops::range::Range<i32>>"* %_2 to i8*
  %2 = bitcast %"core::iter::adapters::step_by::StepBy<core::ops::range::Range<i32>>"* %self to i8*
  call void @llvm.memcpy.p0i8.p0i8.i32(i8* align 4 %1, i8* align 4 %2, i32 16, i1 false)
; call core::iter::adapters::rev::Rev<T>::new
  call void @"_ZN4core4iter8adapters3rev12Rev$LT$T$GT$3new17hb48335f4a59062eaE"(%"core::iter::adapters::rev::Rev<core::iter::adapters::step_by::StepBy<core::ops::range::Range<i32>>>"* sret(%"core::iter::adapters::rev::Rev<core::iter::adapters::step_by::StepBy<core::ops::range::Range<i32>>>") %0, %"core::iter::adapters::step_by::StepBy<core::ops::range::Range<i32>>"* %_2)
  br label %bb1

bb1:                                              ; preds = %start
  ret void
}

; core::iter::traits::iterator::Iterator::step_by
; Function Attrs: inlinehint nonlazybind uwtable
define void @_ZN4core4iter6traits8iterator8Iterator7step_by17h1bfe82479970ba0aE(%"core::iter::adapters::step_by::StepBy<core::ops::range::Range<i32>>"* sret(%"core::iter::adapters::step_by::StepBy<core::ops::range::Range<i32>>") %0, i32 %self.0, i32 %self.1, i32 %step) unnamed_addr #0 {
start:
; call core::iter::adapters::step_by::StepBy<I>::new
  call void @"_ZN4core4iter8adapters7step_by15StepBy$LT$I$GT$3new17h55f4e50daaf59753E"(%"core::iter::adapters::step_by::StepBy<core::ops::range::Range<i32>>"* sret(%"core::iter::adapters::step_by::StepBy<core::ops::range::Range<i32>>") %0, i32 %self.0, i32 %self.1, i32 %step)
  br label %bb1

bb1:                                              ; preds = %start
  ret void
}

; core::iter::adapters::rev::Rev<T>::new
; Function Attrs: nonlazybind uwtable
define void @"_ZN4core4iter8adapters3rev12Rev$LT$T$GT$3new17hb48335f4a59062eaE"(%"core::iter::adapters::rev::Rev<core::iter::adapters::step_by::StepBy<core::ops::range::Range<i32>>>"* sret(%"core::iter::adapters::rev::Rev<core::iter::adapters::step_by::StepBy<core::ops::range::Range<i32>>>") %0, %"core::iter::adapters::step_by::StepBy<core::ops::range::Range<i32>>"* %iter) unnamed_addr #1 {
start:
  %_2 = alloca %"core::iter::adapters::step_by::StepBy<core::ops::range::Range<i32>>", align 4
  %1 = bitcast %"core::iter::adapters::step_by::StepBy<core::ops::range::Range<i32>>"* %_2 to i8*
  %2 = bitcast %"core::iter::adapters::step_by::StepBy<core::ops::range::Range<i32>>"* %iter to i8*
  call void @llvm.memcpy.p0i8.p0i8.i32(i8* align 4 %1, i8* align 4 %2, i32 16, i1 false)
  %3 = bitcast %"core::iter::adapters::rev::Rev<core::iter::adapters::step_by::StepBy<core::ops::range::Range<i32>>>"* %0 to %"core::iter::adapters::step_by::StepBy<core::ops::range::Range<i32>>"*
  %4 = bitcast %"core::iter::adapters::step_by::StepBy<core::ops::range::Range<i32>>"* %3 to i8*
  %5 = bitcast %"core::iter::adapters::step_by::StepBy<core::ops::range::Range<i32>>"* %_2 to i8*
  call void @llvm.memcpy.p0i8.p0i8.i32(i8* align 4 %4, i8* align 4 %5, i32 16, i1 false)
  ret void
}

; core::iter::adapters::step_by::StepBy<I>::new
; Function Attrs: nonlazybind uwtable
define void @"_ZN4core4iter8adapters7step_by15StepBy$LT$I$GT$3new17h55f4e50daaf59753E"(%"core::iter::adapters::step_by::StepBy<core::ops::range::Range<i32>>"* sret(%"core::iter::adapters::step_by::StepBy<core::ops::range::Range<i32>>") %0, i32 %iter.0, i32 %iter.1, i32 %step) unnamed_addr #1 personality i32 (i32, i32, i64, %"unwind::libunwind::_Unwind_Exception"*, %"unwind::libunwind::_Unwind_Context"*)* @rust_eh_personality {
start:
  %1 = alloca { i8*, i32 }, align 4
  %_4 = icmp ne i32 %step, 0
  %_3 = xor i1 %_4, true
  br i1 %_3, label %bb1, label %bb2

bb2:                                              ; preds = %start
  %_7 = sub i32 %step, 1
  %2 = bitcast %"core::iter::adapters::step_by::StepBy<core::ops::range::Range<i32>>"* %0 to { i32, i32 }*
  %3 = getelementptr inbounds { i32, i32 }, { i32, i32 }* %2, i32 0, i32 0
  store i32 %iter.0, i32* %3, align 4
  %4 = getelementptr inbounds { i32, i32 }, { i32, i32 }* %2, i32 0, i32 1
  store i32 %iter.1, i32* %4, align 4
  %5 = getelementptr inbounds %"core::iter::adapters::step_by::StepBy<core::ops::range::Range<i32>>", %"core::iter::adapters::step_by::StepBy<core::ops::range::Range<i32>>"* %0, i32 0, i32 1
  store i32 %_7, i32* %5, align 4
  %6 = getelementptr inbounds %"core::iter::adapters::step_by::StepBy<core::ops::range::Range<i32>>", %"core::iter::adapters::step_by::StepBy<core::ops::range::Range<i32>>"* %0, i32 0, i32 2
  store i8 1, i8* %6, align 4
  ret void

bb1:                                              ; preds = %start
; invoke core::panicking::panic
  invoke void @_ZN4core9panicking5panic17h300a5d89bfe7de21E([0 x i8]* align 1 bitcast (<{ [27 x i8] }>* @alloc20 to [0 x i8]*), i32 27, %"core::panic::location::Location"* align 4 bitcast (<{ i8*, [12 x i8] }>* @alloc22 to %"core::panic::location::Location"*)) #4
          to label %unreachable unwind label %cleanup

bb3:                                              ; preds = %cleanup
  br label %bb4

cleanup:                                          ; preds = %bb1
  %7 = landingpad { i8*, i32 }
          cleanup
  %8 = extractvalue { i8*, i32 } %7, 0
  %9 = extractvalue { i8*, i32 } %7, 1
  %10 = getelementptr inbounds { i8*, i32 }, { i8*, i32 }* %1, i32 0, i32 0
  store i8* %8, i8** %10, align 4
  %11 = getelementptr inbounds { i8*, i32 }, { i8*, i32 }* %1, i32 0, i32 1
  store i32 %9, i32* %11, align 4
  br label %bb3

unreachable:                                      ; preds = %bb1
  unreachable

bb4:                                              ; preds = %bb3
  %12 = bitcast { i8*, i32 }* %1 to i8**
  %13 = load i8*, i8** %12, align 4
  %14 = getelementptr inbounds { i8*, i32 }, { i8*, i32 }* %1, i32 0, i32 1
  %15 = load i32, i32* %14, align 4
  %16 = insertvalue { i8*, i32 } undef, i8* %13, 0
  %17 = insertvalue { i8*, i32 } %16, i32 %15, 1
  resume { i8*, i32 } %17
}

; probe1::probe
; Function Attrs: nonlazybind uwtable
define void @_ZN6probe15probe17h2798dff9cb5b874bE() unnamed_addr #1 {
start:
  %_3 = alloca { i32, i32 }, align 4
  %_2 = alloca %"core::iter::adapters::step_by::StepBy<core::ops::range::Range<i32>>", align 4
  %_1 = alloca %"core::iter::adapters::rev::Rev<core::iter::adapters::step_by::StepBy<core::ops::range::Range<i32>>>", align 4
  %0 = bitcast { i32, i32 }* %_3 to i32*
  store i32 0, i32* %0, align 4
  %1 = getelementptr inbounds { i32, i32 }, { i32, i32 }* %_3, i32 0, i32 1
  store i32 10, i32* %1, align 4
  %2 = getelementptr inbounds { i32, i32 }, { i32, i32 }* %_3, i32 0, i32 0
  %3 = load i32, i32* %2, align 4
  %4 = getelementptr inbounds { i32, i32 }, { i32, i32 }* %_3, i32 0, i32 1
  %5 = load i32, i32* %4, align 4
; call core::iter::traits::iterator::Iterator::step_by
  call void @_ZN4core4iter6traits8iterator8Iterator7step_by17h1bfe82479970ba0aE(%"core::iter::adapters::step_by::StepBy<core::ops::range::Range<i32>>"* sret(%"core::iter::adapters::step_by::StepBy<core::ops::range::Range<i32>>") %_2, i32 %3, i32 %5, i32 2)
  br label %bb1

bb1:                                              ; preds = %start
; call core::iter::traits::iterator::Iterator::rev
  call void @_ZN4core4iter6traits8iterator8Iterator3rev17h1c69f583c2641a23E(%"core::iter::adapters::rev::Rev<core::iter::adapters::step_by::StepBy<core::ops::range::Range<i32>>>"* sret(%"core::iter::adapters::rev::Rev<core::iter::adapters::step_by::StepBy<core::ops::range::Range<i32>>>") %_1, %"core::iter::adapters::step_by::StepBy<core::ops::range::Range<i32>>"* %_2)
  br label %bb2

bb2:                                              ; preds = %bb1
  ret void
}

; Function Attrs: argmemonly nofree nounwind willreturn
declare void @llvm.memcpy.p0i8.p0i8.i32(i8* noalias nocapture writeonly, i8* noalias nocapture readonly, i32, i1 immarg) #2

; Function Attrs: nonlazybind uwtable
declare i32 @rust_eh_personality(i32, i32, i64, %"unwind::libunwind::_Unwind_Exception"*, %"unwind::libunwind::_Unwind_Context"*) unnamed_addr #1

; core::panicking::panic
; Function Attrs: cold noinline noreturn nonlazybind uwtable
declare void @_ZN4core9panicking5panic17h300a5d89bfe7de21E([0 x i8]* align 1, i32, %"core::panic::location::Location"* align 4) unnamed_addr #3

attributes #0 = { inlinehint nonlazybind uwtable "probe-stack"="__rust_probestack" "target-cpu"="pentiumpro" "target-features"="+mmx,+sse,+sse2,+sse3,+ssse3" }
attributes #1 = { nonlazybind uwtable "probe-stack"="__rust_probestack" "target-cpu"="pentiumpro" "target-features"="+mmx,+sse,+sse2,+sse3,+ssse3" }
attributes #2 = { argmemonly nofree nounwind willreturn }
attributes #3 = { cold noinline noreturn nonlazybind uwtable "probe-stack"="__rust_probestack" "target-cpu"="pentiumpro" "target-features"="+mmx,+sse,+sse2,+sse3,+ssse3" }
attributes #4 = { noreturn }

!llvm.module.flags = !{!0, !1}

!0 = !{i32 7, !"PIC Level", i32 2}
!1 = !{i32 2, !"RtLibUseGOT", i32 1}
